; Function Attrs: mustprogress nounwind uwtable
define void @_ZN6gmxapi17MpiContextManagerD2Ev(ptr noundef nonnull align 8 captures(none) dereferenceable(8) %0) unnamed_addr #9 align 2 personality ptr @__gxx_personality_v0 {
  %2 = load ptr, ptr %0, align 8, !tbaa !12
  %.not = icmp eq ptr %2, null
  br i1 %.not, label %_ZNSt10unique_ptrIP10tmpi_comm_St14default_deleteIS1_EED2Ev.exit, label %3

3:                                                ; preds = %1
  invoke void @_ZN3gmx8finalizeEv()
          to label %4 unwind label %5

4:                                                ; preds = %3
  %.pr = load ptr, ptr %0, align 8, !tbaa !12
  %.not.i = icmp eq ptr %.pr, null
  br i1 %.not.i, label %_ZNSt10unique_ptrIP10tmpi_comm_St14default_deleteIS1_EED2Ev.exit, label %_ZNKSt14default_deleteIP10tmpi_comm_EclEPS1_.exit.i

_ZNKSt14default_deleteIP10tmpi_comm_EclEPS1_.exit.i: ; preds = %4
  tail call void @_ZdlPvm(ptr noundef nonnull %.pr, i64 noundef 8) #24
  br label %_ZNSt10unique_ptrIP10tmpi_comm_St14default_deleteIS1_EED2Ev.exit

_ZNSt10unique_ptrIP10tmpi_comm_St14default_deleteIS1_EED2Ev.exit: ; preds = %1, %4, %_ZNKSt14default_deleteIP10tmpi_comm_EclEPS1_.exit.i
  store ptr null, ptr %0, align 8, !tbaa !12
  ret void

5:                                                ; preds = %3
  %6 = landingpad { ptr, i32 }
          catch ptr null
  %7 = extractvalue { ptr, i32 } %6, 0
  tail call void @__clang_call_terminate(ptr %7) #25
  unreachable
}